; Function Attrs: mustprogress nounwind null_pointer_is_valid sspstrong uwtable
define void @_ZN16ImportTextDialogD2Ev(ptr noundef align 8 dereferenceable_or_null(305) initializes((0, 8), (16, 24)) %0) unnamed_addr #11 align 2 personality ptr @__gxx_personality_v0 {
  store ptr getelementptr inbounds nuw inrange(-16, 456) (i8, ptr @_ZTV16ImportTextDialog, i64 16), ptr %0, align 8
  %2 = getelementptr inbounds nuw i8, ptr %0, i64 16
  store ptr getelementptr inbounds nuw inrange(-16, 64) (i8, ptr @_ZTV16ImportTextDialog, i64 488), ptr %2, align 8
  invoke void @_ZN16ImportTextDialog19storeDialogSettingsEv(ptr noundef align 8 dereferenceable_or_null(305) %0)
          to label %3 unwind label %28

3:                                                ; preds = %1
  %4 = getelementptr inbounds nuw i8, ptr %0, i64 40
  %5 = load ptr, ptr %4, align 8
  %6 = icmp eq ptr %5, null
  br i1 %6, label %8, label %7

7:                                                ; preds = %3
  tail call void @_ZdlPvm(ptr noundef nonnull %5, i64 noundef 760) #29
  br label %8

8:                                                ; preds = %7, %3
  %9 = getelementptr inbounds nuw i8, ptr %0, i64 264
  %10 = load ptr, ptr %9, align 8
  %.not.i.i.i = icmp eq ptr %10, null
  br i1 %.not.i.i.i, label %_ZN7QStringD2Ev.exit, label %_ZN17QArrayDataPointerIDsE5derefEv.exit.i.i

_ZN17QArrayDataPointerIDsE5derefEv.exit.i.i:      ; preds = %8
  %11 = atomicrmw sub ptr %10, i32 1 seq_cst, align 4
  %.not.i.i = icmp eq i32 %11, 1
  br i1 %.not.i.i, label %12, label %_ZN7QStringD2Ev.exit

12:                                               ; preds = %_ZN17QArrayDataPointerIDsE5derefEv.exit.i.i
  %13 = load ptr, ptr %9, align 8
  tail call void @_ZN10QArrayData10deallocateEPS_xx(ptr noundef %13, i64 noundef 2, i64 noundef 8) #27
  br label %_ZN7QStringD2Ev.exit

_ZN7QStringD2Ev.exit:                             ; preds = %8, %_ZN17QArrayDataPointerIDsE5derefEv.exit.i.i, %12
  %14 = getelementptr inbounds nuw i8, ptr %0, i64 48
  %15 = load ptr, ptr %14, align 8
  %.not.i.i1 = icmp eq ptr %15, null
  br i1 %.not.i.i1, label %_ZN4QMapI7QString8QVariantED2Ev.exit, label %16

16:                                               ; preds = %_ZN7QStringD2Ev.exit
  %17 = atomicrmw sub ptr %15, i32 1 seq_cst, align 4
  %.not2.i.i = icmp eq i32 %17, 1
  br i1 %.not2.i.i, label %18, label %_ZN4QMapI7QString8QVariantED2Ev.exit

18:                                               ; preds = %16
  %19 = load ptr, ptr %14, align 8
  %20 = icmp eq ptr %19, null
  br i1 %20, label %_ZN4QMapI7QString8QVariantED2Ev.exit, label %21

21:                                               ; preds = %18
  %22 = getelementptr inbounds nuw i8, ptr %19, i64 8
  %23 = getelementptr inbounds nuw i8, ptr %19, i64 24
  %24 = load ptr, ptr %23, align 8
  invoke void @_ZNSt8_Rb_treeI7QStringSt4pairIKS0_8QVariantESt10_Select1stIS4_ESt4lessIS0_ESaIS4_EE8_M_eraseEPSt13_Rb_tree_nodeIS4_E(ptr noundef nonnull align 8 dereferenceable_or_null(48) %22, ptr noundef %24)
          to label %_ZN8QMapDataISt3mapI7QString8QVariantSt4lessIS1_ESaISt4pairIKS1_S2_EEEED2Ev.exit.i.i unwind label %25

25:                                               ; preds = %21
  %26 = landingpad { ptr, i32 }
          catch ptr null
  %27 = extractvalue { ptr, i32 } %26, 0
  tail call void @__clang_call_terminate(ptr %27) #31
  unreachable

_ZN8QMapDataISt3mapI7QString8QVariantSt4lessIS1_ESaISt4pairIKS1_S2_EEEED2Ev.exit.i.i: ; preds = %21
  tail call void @_ZdlPvm(ptr noundef nonnull %19, i64 noundef 56) #29
  br label %_ZN4QMapI7QString8QVariantED2Ev.exit

_ZN4QMapI7QString8QVariantED2Ev.exit:             ; preds = %_ZN7QStringD2Ev.exit, %16, %18, %_ZN8QMapDataISt3mapI7QString8QVariantSt4lessIS1_ESaISt4pairIKS1_S2_EEEED2Ev.exit.i.i
  tail call void @_ZN7QDialogD2Ev(ptr noundef align 8 dereferenceable_or_null(40) %0) #27
  ret void

28:                                               ; preds = %1
  %29 = landingpad { ptr, i32 }
          catch ptr null
  %30 = extractvalue { ptr, i32 } %29, 0
  tail call void @__clang_call_terminate(ptr %30) #31
  unreachable
}